; Function Attrs: mustprogress nounwind uwtable
define hidden void @_ZN10DumpMerger9set_errorEPKc(ptr nocapture noundef nonnull align 8 dereferenceable(24) %0, ptr noundef %1) local_unnamed_addr #3 align 2 {
  %3 = load volatile ptr, ptr getelementptr inbounds (i8, ptr @_ZN16LogTagSetMappingILN6LogTag4typeE53ELS1_0ELS1_0ELS1_0ELS1_0ELS1_0EE7_tagsetE, i64 80), align 8
  %.not = icmp eq ptr %3, null
  br i1 %.not, label %7, label %4

4:                                                ; preds = %2
  %5 = getelementptr inbounds i8, ptr %0, i64 8
  %6 = load ptr, ptr %5, align 8
  tail call void (ptr, ...) @_ZN7LogImplILN6LogTag4typeE53ELS1_0ELS1_0ELS1_0ELS1_0ELS1_0EE5writeILN8LogLevel4typeE5EEEvPKcz(ptr noundef nonnull @.str.6, ptr noundef %1, ptr noundef %6)
  br label %7

7:                                                ; preds = %2, %4
  %8 = load ptr, ptr %0, align 8
  %9 = getelementptr inbounds i8, ptr %8, i64 64
  store ptr %1, ptr %9, align 8
  %10 = getelementptr inbounds i8, ptr %0, i64 16
  store i8 1, ptr %10, align 8
  ret void
}